target datalayout = "e-m:e-p270:32:32-p271:32:32-p272:64:64-i64:64-i128:128-f80:128-n8:16:32:64-S128"
target triple = "x86_64-pc-linux-gnu"

%struct._generic_ARKInterp = type { ptr, ptr }
%struct._generic_ARKInterpOps = type { ptr, ptr, ptr, ptr, ptr, ptr, ptr }
%struct.ARKodeMemRec = type { ptr, double, ptr, i32, i32, double, double, ptr, i32, double, ptr, i32, i32, ptr, ptr, i32, ptr, ptr, i32, ptr, ptr, ptr, ptr, ptr, ptr, ptr, ptr, ptr, ptr, ptr, ptr, ptr, ptr, ptr, i32, ptr, ptr, i32, ptr, i32, ptr, ptr, ptr, ptr, ptr, ptr, ptr, ptr, ptr, ptr, ptr, ptr, ptr, ptr, ptr, ptr, ptr, ptr, ptr, ptr, ptr, ptr, ptr, ptr, ptr, ptr, i32, ptr, ptr, ptr, ptr, ptr, ptr, ptr, i32, ptr, ptr, ptr, i32, ptr, ptr, ptr, ptr, ptr, ptr, ptr, i32, i32, i32, i32, double, double, double, double, double, double, double, double, double, double, i32, ptr, i64, i32, i32, i32, i32, i64, i64, i32, i64, i64, i64, i64, i64, i64, i64, double, double, double, double, double, i32, double, double, i32, i32, i32, i32, i32, i32, i32, i32, ptr, i32, ptr, ptr, ptr, ptr, i32, i32, i32 }
%struct._ARKInterpContent_Lagrange = type { i32, i32, ptr, ptr, i32, double }

; Function Attrs: nounwind uwtable
define ptr @arkInterpCreate_Lagrange(ptr noundef %0, i32 noundef %1) #0 {
  %3 = alloca ptr, align 8
  %4 = alloca ptr, align 8
  %5 = alloca i32, align 4
  %6 = alloca ptr, align 8
  %7 = alloca ptr, align 8
  %8 = alloca ptr, align 8
  %9 = alloca i32, align 4
  store ptr %0, ptr %4, align 8, !tbaa !3
  store i32 %1, ptr %5, align 4, !tbaa !24
  call void @llvm.lifetime.start.p0(i64 8, ptr %6) #7
  call void @llvm.lifetime.start.p0(i64 8, ptr %7) #7
  call void @llvm.lifetime.start.p0(i64 8, ptr %8) #7
  %10 = load i32, ptr %5, align 4, !tbaa !24
  %11 = icmp slt i32 %10, 0
  br i1 %11, label %15, label %12

12:                                               ; preds = %2
  %13 = load i32, ptr %5, align 4, !tbaa !24
  %14 = icmp sgt i32 %13, 5
  br i1 %14, label %15, label %16

15:                                               ; preds = %12, %2
  store ptr null, ptr %3, align 8
  store i32 1, ptr %9, align 4
  br label %100

16:                                               ; preds = %12
  store ptr null, ptr %6, align 8, !tbaa !8
  %17 = call noalias ptr @malloc(i64 noundef 16) #8
  store ptr %17, ptr %6, align 8, !tbaa !8
  %18 = load ptr, ptr %6, align 8, !tbaa !8
  %19 = icmp eq ptr %18, null
  br i1 %19, label %20, label %21

20:                                               ; preds = %16
  store ptr null, ptr %3, align 8
  store i32 1, ptr %9, align 4
  br label %100

21:                                               ; preds = %16
  store ptr null, ptr %8, align 8, !tbaa !32
  %22 = call noalias ptr @malloc(i64 noundef 56) #8
  store ptr %22, ptr %8, align 8, !tbaa !32
  %23 = load ptr, ptr %8, align 8, !tbaa !32
  %24 = icmp eq ptr %23, null
  br i1 %24, label %25, label %27

25:                                               ; preds = %21
  %26 = load ptr, ptr %6, align 8, !tbaa !8
  call void @free(ptr noundef %26) #7
  store ptr null, ptr %3, align 8
  store i32 1, ptr %9, align 4
  br label %100

27:                                               ; preds = %21
  %28 = load ptr, ptr %8, align 8, !tbaa !32
  %29 = getelementptr inbounds nuw %struct._generic_ARKInterpOps, ptr %28, i32 0, i32 0
  store ptr @arkInterpResize_Lagrange, ptr %29, align 8, !tbaa !18
  %30 = load ptr, ptr %8, align 8, !tbaa !32
  %31 = getelementptr inbounds nuw %struct._generic_ARKInterpOps, ptr %30, i32 0, i32 1
  store ptr @arkInterpFree_Lagrange, ptr %31, align 8, !tbaa !20
  %32 = load ptr, ptr %8, align 8, !tbaa !32
  %33 = getelementptr inbounds nuw %struct._generic_ARKInterpOps, ptr %32, i32 0, i32 2
  store ptr @arkInterpPrintMem_Lagrange, ptr %33, align 8, !tbaa !23
  %34 = load ptr, ptr %8, align 8, !tbaa !32
  %35 = getelementptr inbounds nuw %struct._generic_ARKInterpOps, ptr %34, i32 0, i32 3
  store ptr @arkInterpSetDegree_Lagrange, ptr %35, align 8, !tbaa !26
  %36 = load ptr, ptr %8, align 8, !tbaa !32
  %37 = getelementptr inbounds nuw %struct._generic_ARKInterpOps, ptr %36, i32 0, i32 4
  store ptr @arkInterpInit_Lagrange, ptr %37, align 8, !tbaa !29
  %38 = load ptr, ptr %8, align 8, !tbaa !32
  %39 = getelementptr inbounds nuw %struct._generic_ARKInterpOps, ptr %38, i32 0, i32 5
  store ptr @arkInterpUpdate_Lagrange, ptr %39, align 8, !tbaa !30
  %40 = load ptr, ptr %8, align 8, !tbaa !32
  %41 = getelementptr inbounds nuw %struct._generic_ARKInterpOps, ptr %40, i32 0, i32 6
  store ptr @arkInterpEvaluate_Lagrange, ptr %41, align 8, !tbaa !31
  store ptr null, ptr %7, align 8, !tbaa !60
  %42 = call noalias ptr @malloc(i64 noundef 40) #8
  store ptr %42, ptr %7, align 8, !tbaa !60
  %43 = load ptr, ptr %7, align 8, !tbaa !60
  %44 = icmp eq ptr %43, null
  br i1 %44, label %45, label %48

45:                                               ; preds = %27
  %46 = load ptr, ptr %8, align 8, !tbaa !32
  call void @free(ptr noundef %46) #7
  %47 = load ptr, ptr %6, align 8, !tbaa !8
  call void @free(ptr noundef %47) #7
  store ptr null, ptr %3, align 8
  store i32 1, ptr %9, align 4
  br label %100

48:                                               ; preds = %27
  %49 = load ptr, ptr %7, align 8, !tbaa !60
  call void @llvm.memset.p0.i64(ptr align 8 %49, i8 0, i64 40, i1 false)
  %50 = load ptr, ptr %8, align 8, !tbaa !32
  %51 = load ptr, ptr %6, align 8, !tbaa !8
  %52 = getelementptr inbounds nuw %struct._generic_ARKInterp, ptr %51, i32 0, i32 1
  store ptr %50, ptr %52, align 8, !tbaa !15
  %53 = load ptr, ptr %7, align 8, !tbaa !60
  %54 = load ptr, ptr %6, align 8, !tbaa !8
  %55 = getelementptr inbounds nuw %struct._generic_ARKInterp, ptr %54, i32 0, i32 0
  store ptr %53, ptr %55, align 8, !tbaa !35
  %56 = load i32, ptr %5, align 4, !tbaa !24
  %57 = add nsw i32 %56, 1
  %58 = icmp slt i32 %57, 6
  br i1 %58, label %59, label %62

59:                                               ; preds = %48
  %60 = load i32, ptr %5, align 4, !tbaa !24
  %61 = add nsw i32 %60, 1
  br label %63

62:                                               ; preds = %48
  br label %63

63:                                               ; preds = %62, %59
  %64 = phi i32 [ %61, %59 ], [ 6, %62 ]
  %65 = load ptr, ptr %7, align 8, !tbaa !60
  %66 = getelementptr inbounds nuw %struct._ARKInterpContent_Lagrange, ptr %65, i32 0, i32 0
  store i32 %64, ptr %66, align 8, !tbaa !62
  %67 = load ptr, ptr %7, align 8, !tbaa !60
  %68 = getelementptr inbounds nuw %struct._ARKInterpContent_Lagrange, ptr %67, i32 0, i32 1
  store i32 0, ptr %68, align 4, !tbaa !66
  %69 = load ptr, ptr %7, align 8, !tbaa !60
  %70 = getelementptr inbounds nuw %struct._ARKInterpContent_Lagrange, ptr %69, i32 0, i32 4
  store i32 0, ptr %70, align 8, !tbaa !67
  %71 = load ptr, ptr %7, align 8, !tbaa !60
  %72 = getelementptr inbounds nuw %struct._ARKInterpContent_Lagrange, ptr %71, i32 0, i32 3
  store ptr null, ptr %72, align 8, !tbaa !68
  %73 = load ptr, ptr %7, align 8, !tbaa !60
  %74 = getelementptr inbounds nuw %struct._ARKInterpContent_Lagrange, ptr %73, i32 0, i32 2
  store ptr null, ptr %74, align 8, !tbaa !69
  %75 = load ptr, ptr %4, align 8, !tbaa !3
  %76 = getelementptr inbounds nuw %struct.ARKodeMemRec, ptr %75, i32 0, i32 1
  %77 = load double, ptr %76, align 8, !tbaa !70
  %78 = fmul double 1.000000e+02, %77
  %79 = load ptr, ptr %7, align 8, !tbaa !60
  %80 = getelementptr inbounds nuw %struct._ARKInterpContent_Lagrange, ptr %79, i32 0, i32 5
  store double %78, ptr %80, align 8, !tbaa !71
  %81 = load ptr, ptr %7, align 8, !tbaa !60
  %82 = getelementptr inbounds nuw %struct._ARKInterpContent_Lagrange, ptr %81, i32 0, i32 0
  %83 = load i32, ptr %82, align 8, !tbaa !62
  %84 = add nsw i32 %83, 1
  %85 = sext i32 %84 to i64
  %86 = load ptr, ptr %4, align 8, !tbaa !3
  %87 = getelementptr inbounds nuw %struct.ARKodeMemRec, ptr %86, i32 0, i32 115
  %88 = load i64, ptr %87, align 8, !tbaa !42
  %89 = add nsw i64 %88, %85
  store i64 %89, ptr %87, align 8, !tbaa !42
  %90 = load ptr, ptr %7, align 8, !tbaa !60
  %91 = getelementptr inbounds nuw %struct._ARKInterpContent_Lagrange, ptr %90, i32 0, i32 0
  %92 = load i32, ptr %91, align 8, !tbaa !62
  %93 = add nsw i32 %92, 2
  %94 = sext i32 %93 to i64
  %95 = load ptr, ptr %4, align 8, !tbaa !3
  %96 = getelementptr inbounds nuw %struct.ARKodeMemRec, ptr %95, i32 0, i32 116
  %97 = load i64, ptr %96, align 8, !tbaa !48
  %98 = add nsw i64 %97, %94
  store i64 %98, ptr %96, align 8, !tbaa !48
  %99 = load ptr, ptr %6, align 8, !tbaa !8
  store ptr %99, ptr %3, align 8
  store i32 1, ptr %9, align 4
  br label %100

100:                                              ; preds = %63, %45, %25, %20, %15
  call void @llvm.lifetime.end.p0(i64 8, ptr %8) #7
  call void @llvm.lifetime.end.p0(i64 8, ptr %7) #7
  call void @llvm.lifetime.end.p0(i64 8, ptr %6) #7
  %101 = load ptr, ptr %3, align 8
  ret ptr %101
}