; Function Attrs: mustprogress nounwind willreturn uwtable
define noalias noundef ptr @arkInterpCreate_Lagrange(ptr noundef captures(none) %0, i32 noundef %1) local_unnamed_addr #1 {
  %or.cond = icmp ugt i32 %1, 5
  br i1 %or.cond, label %36, label %3

3:                                                ; preds = %2
  %4 = tail call noalias dereferenceable_or_null(16) ptr @malloc(i64 noundef 16) #15
  %5 = icmp eq ptr %4, null
  br i1 %5, label %36, label %6

6:                                                ; preds = %3
  %7 = tail call noalias dereferenceable_or_null(56) ptr @malloc(i64 noundef 56) #15
  %8 = icmp eq ptr %7, null
  br i1 %8, label %9, label %10

9:                                                ; preds = %6
  tail call void @free(ptr noundef nonnull %4) #14
  br label %36

10:                                               ; preds = %6
  store ptr @arkInterpResize_Lagrange, ptr %7, align 8, !tbaa !9
  %11 = getelementptr inbounds nuw i8, ptr %7, i64 8
  store ptr @arkInterpFree_Lagrange, ptr %11, align 8, !tbaa !11
  %12 = getelementptr inbounds nuw i8, ptr %7, i64 16
  store ptr @arkInterpPrintMem_Lagrange, ptr %12, align 8, !tbaa !12
  %13 = getelementptr inbounds nuw i8, ptr %7, i64 24
  store ptr @arkInterpSetDegree_Lagrange, ptr %13, align 8, !tbaa !13
  %14 = getelementptr inbounds nuw i8, ptr %7, i64 32
  store ptr @arkInterpInit_Lagrange, ptr %14, align 8, !tbaa !14
  %15 = getelementptr inbounds nuw i8, ptr %7, i64 40
  store ptr @arkInterpUpdate_Lagrange, ptr %15, align 8, !tbaa !15
  %16 = getelementptr inbounds nuw i8, ptr %7, i64 48
  store ptr @arkInterpEvaluate_Lagrange, ptr %16, align 8, !tbaa !16
  %calloc = tail call dereferenceable_or_null(40) ptr @calloc(i64 1, i64 40)
  %17 = icmp eq ptr %calloc, null
  br i1 %17, label %18, label %19

18:                                               ; preds = %10
  tail call void @free(ptr noundef nonnull %7) #14
  tail call void @free(ptr noundef nonnull %4) #14
  br label %36

19:                                               ; preds = %10
  %20 = getelementptr inbounds nuw i8, ptr %4, i64 8
  store ptr %7, ptr %20, align 8, !tbaa !3
  store ptr %calloc, ptr %4, align 8, !tbaa !17
  %21 = add nuw nsw i32 %1, 1
  store i32 %21, ptr %calloc, align 8, !tbaa !49
  %22 = getelementptr inbounds nuw i8, ptr %0, i64 8
  %23 = load double, ptr %22, align 8, !tbaa !53
  %24 = fmul double %23, 1.000000e+02
  %25 = getelementptr inbounds nuw i8, ptr %calloc, i64 32
  store double %24, ptr %25, align 8, !tbaa !54
  %26 = add nuw nsw i32 %1, 2
  %27 = zext nneg i32 %26 to i64
  %28 = getelementptr inbounds nuw i8, ptr %0, i64 872
  %29 = load i64, ptr %28, align 8, !tbaa !23
  %30 = add nsw i64 %29, %27
  store i64 %30, ptr %28, align 8, !tbaa !23
  %31 = add nuw nsw i32 %1, 3
  %32 = zext nneg i32 %31 to i64
  %33 = getelementptr inbounds nuw i8, ptr %0, i64 880
  %34 = load i64, ptr %33, align 8, !tbaa !31
  %35 = add nsw i64 %34, %32
  store i64 %35, ptr %33, align 8, !tbaa !31
  br label %36

36:                                               ; preds = %3, %2, %19, %18, %9
  %.0 = phi ptr [ null, %9 ], [ null, %18 ], [ %4, %19 ], [ null, %2 ], [ null, %3 ]
  ret ptr %.0
}